target datalayout = "e-m:e-p270:32:32-p271:32:32-p272:64:64-i64:64-i128:128-f80:128-n8:16:32:64-S128"
target triple = "x86_64-pc-linux-gnu"

%struct.expert_field = type { i32, i32 }
%struct._packet_info = type { ptr, ptr, i32, i32, %struct.nstime_t, %struct.nstime_t, %struct.nstime_t, i8, ptr, ptr, ptr, ptr, %struct._address, %struct._address, %struct._address, %struct._address, %struct._address, %struct._address, i32, ptr, i8, [3 x i8], %struct.anon, i32, i32, i32, i32, ptr, i8, ptr, ptr, i16, i16, i32, i32, i16, i32, i32, ptr, ptr, ptr, i8, i8, i16, i16, i16, i32, i16, i16, ptr, ptr, ptr, ptr, ptr, i32, i32 }
%struct.nstime_t = type { i64, i32 }
%struct._address = type { i32, i32, ptr, ptr }
%struct.anon = type { i8, [3 x i8] }
%struct._proto_node = type { ptr, ptr, ptr, ptr, ptr, ptr, ptr }
%struct.field_info = type { ptr, i32, i32, i32, i32, i32, i32, ptr, ptr, ptr, i32, i32 }

@hf_dsmcc_table_id = internal global i32 0, align 4
@hf_dsmcc_section_syntax_indicator = internal global i32 0, align 4
@hf_dsmcc_private_indicator = internal global i32 0, align 4
@hf_dsmcc_reserved = internal global i32 0, align 4
@hf_dsmcc_section_length = internal global i32 0, align 4
@hf_dsmcc_table_id_extension = internal global i32 0, align 4
@hf_dsmcc_reserved2 = internal global i32 0, align 4
@hf_dsmcc_version_number = internal global i32 0, align 4
@hf_dsmcc_current_next_indicator = internal global i32 0, align 4
@hf_dsmcc_section_number = internal global i32 0, align 4
@hf_dsmcc_last_section_number = internal global i32 0, align 4
@hf_dsmcc_crc = internal global i32 0, align 4
@hf_dsmcc_checksum = internal global i32 0, align 4
@ett_dsmcc = internal global i32 0, align 4
@ei_dsmcc_crc_invalid = internal global %struct.expert_field zeroinitializer, align 4
@proto_dsmcc = internal global i32 0, align 4
@dsmcc_sect_check_crc = internal global i8 0, align 1
@.str.488 = private unnamed_addr constant [7 x i8] c"DSM-CC\00", align 1
@.str.489 = private unnamed_addr constant [11 x i8] c"Unverified\00", align 1
@.str.490 = private unnamed_addr constant [9 x i8] c"Verified\00", align 1
@.str.491 = private unnamed_addr constant [17 x i8] c"CRC: 0x%08x [%s]\00", align 1
@.str.492 = private unnamed_addr constant [55 x i8] c"CRC: 0x%08x [Failed Verification (Calculated: 0x%08x)]\00", align 1

; Function Attrs: inlinehint nounwind null_pointer_is_valid sspstrong uwtable
define internal void @proto_item_set_generated(ptr noundef %0) #3 {
  %2 = alloca ptr, align 8
  store ptr %0, ptr %2, align 8
  %3 = load ptr, ptr %2, align 8
  %4 = icmp ne ptr %3, null
  br i1 %4, label %5, label %24

5:                                                ; preds = %1
  br label %6

6:                                                ; preds = %5
  %7 = load ptr, ptr %2, align 8
  %8 = getelementptr inbounds nuw %struct._proto_node, ptr %7, i32 0, i32 5
  %9 = load ptr, ptr %8, align 8
  %10 = icmp ne ptr %9, null
  br i1 %10, label %11, label %22

11:                                               ; preds = %6
  %12 = load ptr, ptr %2, align 8
  %13 = getelementptr inbounds nuw %struct._proto_node, ptr %12, i32 0, i32 5
  %14 = load ptr, ptr %13, align 8
  %15 = getelementptr inbounds nuw %struct.field_info, ptr %14, i32 0, i32 6
  %16 = load i32, ptr %15, align 4
  %17 = or i32 %16, 2
  %18 = load ptr, ptr %2, align 8
  %19 = getelementptr inbounds nuw %struct._proto_node, ptr %18, i32 0, i32 5
  %20 = load ptr, ptr %19, align 8
  %21 = getelementptr inbounds nuw %struct.field_info, ptr %20, i32 0, i32 6
  store i32 %17, ptr %21, align 4
  br label %22

22:                                               ; preds = %11, %6
  br label %23

23:                                               ; preds = %22
  br label %24

24:                                               ; preds = %23, %1
  ret void
}

; Function Attrs: null_pointer_is_valid sspstrong uwtable
define internal i32 @dissect_dsmcc_ts(ptr noundef %0, ptr noundef %1, ptr noundef %2, ptr noundef %3) #0 {
  %5 = alloca ptr, align 8
  %6 = alloca ptr, align 8
  %7 = alloca ptr, align 8
  %8 = alloca ptr, align 8
  %9 = alloca ptr, align 8
  %10 = alloca ptr, align 8
  %11 = alloca i32, align 4
  %12 = alloca i8, align 1
  %13 = alloca i16, align 2
  %14 = alloca i32, align 4
  %15 = alloca i32, align 4
  %16 = alloca ptr, align 8
  %17 = alloca ptr, align 8
  %18 = alloca i16, align 2
  %19 = alloca i32, align 4
  %20 = alloca ptr, align 8
  store ptr %0, ptr %5, align 8
  store ptr %1, ptr %6, align 8
  store ptr %2, ptr %7, align 8
  store ptr %3, ptr %8, align 8
  call void @llvm.lifetime.start.p0(i64 8, ptr %9) #4
  call void @llvm.lifetime.start.p0(i64 8, ptr %10) #4
  call void @llvm.lifetime.start.p0(i64 4, ptr %11) #4
  call void @llvm.lifetime.start.p0(i64 1, ptr %12) #4
  call void @llvm.lifetime.start.p0(i64 2, ptr %13) #4
  call void @llvm.lifetime.start.p0(i64 4, ptr %14) #4
  call void @llvm.lifetime.start.p0(i64 4, ptr %15) #4
  call void @llvm.lifetime.start.p0(i64 8, ptr %16) #4
  call void @llvm.lifetime.start.p0(i64 8, ptr %17) #4
  call void @llvm.lifetime.start.p0(i64 2, ptr %18) #4
  call void @llvm.lifetime.start.p0(i64 4, ptr %19) #4
  store i32 0, ptr %19, align 4
  %21 = load ptr, ptr %7, align 8
  %22 = load i32, ptr @proto_dsmcc, align 4
  %23 = load ptr, ptr %5, align 8
  %24 = call ptr @proto_tree_add_item(ptr noundef %21, i32 noundef %22, ptr noundef %23, i32 noundef 0, i32 noundef -1, i32 noundef 0)
  store ptr %24, ptr %9, align 8
  %25 = load ptr, ptr %9, align 8
  %26 = load i32, ptr @ett_dsmcc, align 4
  %27 = call ptr @proto_item_add_subtree(ptr noundef %25, i32 noundef %26)
  store ptr %27, ptr %10, align 8
  %28 = load ptr, ptr %6, align 8
  %29 = getelementptr inbounds nuw %struct._packet_info, ptr %28, i32 0, i32 1
  %30 = load ptr, ptr %29, align 8
  call void @col_set_str(ptr noundef %30, i32 noundef 35, ptr noundef @.str.488)
  %31 = load ptr, ptr %5, align 8
  %32 = load i32, ptr %19, align 4
  %33 = call zeroext i8 @tvb_get_uint8(ptr noundef %31, i32 noundef %32)
  store i8 %33, ptr %12, align 1
  %34 = load ptr, ptr %10, align 8
  %35 = load i32, ptr @hf_dsmcc_table_id, align 4
  %36 = load ptr, ptr %5, align 8
  %37 = load i32, ptr %19, align 4
  %38 = call ptr @proto_tree_add_item(ptr noundef %34, i32 noundef %35, ptr noundef %36, i32 noundef %37, i32 noundef 1, i32 noundef 0)
  %39 = load i32, ptr %19, align 4
  %40 = add i32 %39, 1
  store i32 %40, ptr %19, align 4
  %41 = load ptr, ptr %5, align 8
  %42 = load i32, ptr %19, align 4
  %43 = call zeroext i16 @tvb_get_ntohs(ptr noundef %41, i32 noundef %42)
  store i16 %43, ptr %18, align 2
  %44 = load i16, ptr %18, align 2
  %45 = zext i16 %44 to i32
  %46 = and i32 %45, 32768
  %47 = trunc i32 %46 to i16
  store i16 %47, ptr %18, align 2
  %48 = load ptr, ptr %10, align 8
  %49 = load i32, ptr @hf_dsmcc_section_syntax_indicator, align 4
  %50 = load ptr, ptr %5, align 8
  %51 = load i32, ptr %19, align 4
  %52 = call ptr @proto_tree_add_item(ptr noundef %48, i32 noundef %49, ptr noundef %50, i32 noundef %51, i32 noundef 2, i32 noundef 0)
  %53 = load ptr, ptr %10, align 8
  %54 = load i32, ptr @hf_dsmcc_private_indicator, align 4
  %55 = load ptr, ptr %5, align 8
  %56 = load i32, ptr %19, align 4
  %57 = call ptr @proto_tree_add_item(ptr noundef %53, i32 noundef %54, ptr noundef %55, i32 noundef %56, i32 noundef 2, i32 noundef 0)
  %58 = load ptr, ptr %10, align 8
  %59 = load i32, ptr @hf_dsmcc_reserved, align 4
  %60 = load ptr, ptr %5, align 8
  %61 = load i32, ptr %19, align 4
  %62 = call ptr @proto_tree_add_item(ptr noundef %58, i32 noundef %59, ptr noundef %60, i32 noundef %61, i32 noundef 2, i32 noundef 0)
  %63 = load ptr, ptr %10, align 8
  %64 = load i32, ptr @hf_dsmcc_section_length, align 4
  %65 = load ptr, ptr %5, align 8
  %66 = load i32, ptr %19, align 4
  %67 = call ptr @proto_tree_add_item(ptr noundef %63, i32 noundef %64, ptr noundef %65, i32 noundef %66, i32 noundef 2, i32 noundef 0)
  %68 = load ptr, ptr %5, align 8
  %69 = load i32, ptr %19, align 4
  %70 = call zeroext i16 @tvb_get_ntohs(ptr noundef %68, i32 noundef %69)
  store i16 %70, ptr %13, align 2
  %71 = load i16, ptr %13, align 2
  %72 = zext i16 %71 to i32
  %73 = and i32 %72, 4095
  %74 = trunc i32 %73 to i16
  store i16 %74, ptr %13, align 2
  %75 = load i32, ptr %19, align 4
  %76 = add i32 %75, 2
  store i32 %76, ptr %19, align 4
  %77 = load ptr, ptr %10, align 8
  %78 = load i32, ptr @hf_dsmcc_table_id_extension, align 4
  %79 = load ptr, ptr %5, align 8
  %80 = load i32, ptr %19, align 4
  %81 = call ptr @proto_tree_add_item(ptr noundef %77, i32 noundef %78, ptr noundef %79, i32 noundef %80, i32 noundef 2, i32 noundef 0)
  %82 = load i32, ptr %19, align 4
  %83 = add i32 %82, 2
  store i32 %83, ptr %19, align 4
  %84 = load ptr, ptr %10, align 8
  %85 = load i32, ptr @hf_dsmcc_reserved2, align 4
  %86 = load ptr, ptr %5, align 8
  %87 = load i32, ptr %19, align 4
  %88 = call ptr @proto_tree_add_item(ptr noundef %84, i32 noundef %85, ptr noundef %86, i32 noundef %87, i32 noundef 1, i32 noundef 0)
  %89 = load ptr, ptr %10, align 8
  %90 = load i32, ptr @hf_dsmcc_version_number, align 4
  %91 = load ptr, ptr %5, align 8
  %92 = load i32, ptr %19, align 4
  %93 = call ptr @proto_tree_add_item(ptr noundef %89, i32 noundef %90, ptr noundef %91, i32 noundef %92, i32 noundef 1, i32 noundef 0)
  %94 = load ptr, ptr %10, align 8
  %95 = load i32, ptr @hf_dsmcc_current_next_indicator, align 4
  %96 = load ptr, ptr %5, align 8
  %97 = load i32, ptr %19, align 4
  %98 = call ptr @proto_tree_add_item(ptr noundef %94, i32 noundef %95, ptr noundef %96, i32 noundef %97, i32 noundef 1, i32 noundef 0)
  %99 = load i32, ptr %19, align 4
  %100 = add i32 %99, 1
  store i32 %100, ptr %19, align 4
  %101 = load ptr, ptr %10, align 8
  %102 = load i32, ptr @hf_dsmcc_section_number, align 4
  %103 = load ptr, ptr %5, align 8
  %104 = load i32, ptr %19, align 4
  %105 = call ptr @proto_tree_add_item(ptr noundef %101, i32 noundef %102, ptr noundef %103, i32 noundef %104, i32 noundef 1, i32 noundef 0)
  %106 = load i32, ptr %19, align 4
  %107 = add i32 %106, 1
  store i32 %107, ptr %19, align 4
  %108 = load ptr, ptr %10, align 8
  %109 = load i32, ptr @hf_dsmcc_last_section_number, align 4
  %110 = load ptr, ptr %5, align 8
  %111 = load i32, ptr %19, align 4
  %112 = call ptr @proto_tree_add_item(ptr noundef %108, i32 noundef %109, ptr noundef %110, i32 noundef %111, i32 noundef 1, i32 noundef 0)
  %113 = load i32, ptr %19, align 4
  %114 = add i32 %113, 1
  store i32 %114, ptr %19, align 4
  %115 = load ptr, ptr %5, align 8
  %116 = load i32, ptr %19, align 4
  %117 = load i16, ptr %13, align 2
  %118 = zext i16 %117 to i32
  %119 = sub i32 %118, 9
  %120 = call ptr @tvb_new_subset_length(ptr noundef %115, i32 noundef %116, i32 noundef %119)
  store ptr %120, ptr %17, align 8
  %121 = load i8, ptr %12, align 1
  %122 = zext i8 %121 to i32
  switch i32 %122, label %128 [
    i32 58, label %129
    i32 59, label %123
    i32 60, label %123
    i32 61, label %129
    i32 62, label %129
  ]

123:                                              ; preds = %4, %4
  %124 = load ptr, ptr %17, align 8
  %125 = load ptr, ptr %6, align 8
  %126 = load ptr, ptr %10, align 8
  %127 = load ptr, ptr %7, align 8
  call void @dissect_dsmcc_un(ptr noundef %124, ptr noundef %125, ptr noundef %126, ptr noundef %127)
  br label %129

128:                                              ; preds = %4
  br label %129

129:                                              ; preds = %128, %4, %4, %123, %4
  %130 = load i16, ptr %13, align 2
  %131 = zext i16 %130 to i32
  %132 = add i32 3, %131
  %133 = sub i32 %132, 4
  store i32 %133, ptr %11, align 4
  %134 = load i16, ptr %18, align 2
  %135 = icmp ne i16 %134, 0
  br i1 %135, label %136, label %174

136:                                              ; preds = %129
  %137 = load ptr, ptr %5, align 8
  %138 = load i32, ptr %11, align 4
  %139 = call i32 @tvb_get_ntohl(ptr noundef %137, i32 noundef %138)
  store i32 %139, ptr %14, align 4
  %140 = load i32, ptr %14, align 4
  store i32 %140, ptr %15, align 4
  store ptr @.str.489, ptr %16, align 8
  %141 = load i8, ptr @dsmcc_sect_check_crc, align 1, !range !6, !noundef !7
  %142 = trunc i8 %141 to i1
  br i1 %142, label %143, label %147

143:                                              ; preds = %136
  store ptr @.str.490, ptr %16, align 8
  %144 = load ptr, ptr %5, align 8
  %145 = load i32, ptr %11, align 4
  %146 = call i32 @crc32_mpeg2_tvb_offset(ptr noundef %144, i32 noundef 0, i32 noundef %145)
  store i32 %146, ptr %15, align 4
  br label %147

147:                                              ; preds = %143, %136
  %148 = load i32, ptr %15, align 4
  %149 = load i32, ptr %14, align 4
  %150 = icmp eq i32 %148, %149
  br i1 %150, label %151, label %160

151:                                              ; preds = %147
  %152 = load ptr, ptr %10, align 8
  %153 = load i32, ptr @hf_dsmcc_crc, align 4
  %154 = load ptr, ptr %5, align 8
  %155 = load i32, ptr %11, align 4
  %156 = load i32, ptr %14, align 4
  %157 = load i32, ptr %14, align 4
  %158 = load ptr, ptr %16, align 8
  %159 = call ptr (ptr, i32, ptr, i32, i32, i32, ptr, ...) @proto_tree_add_uint_format(ptr noundef %152, i32 noundef %153, ptr noundef %154, i32 noundef %155, i32 noundef 4, i32 noundef %156, ptr noundef @.str.491, i32 noundef %157, ptr noundef %158)
  br label %173

160:                                              ; preds = %147
  call void @llvm.lifetime.start.p0(i64 8, ptr %20) #4
  %161 = load ptr, ptr %10, align 8
  %162 = load i32, ptr @hf_dsmcc_crc, align 4
  %163 = load ptr, ptr %5, align 8
  %164 = load i32, ptr %11, align 4
  %165 = load i32, ptr %14, align 4
  %166 = load i32, ptr %14, align 4
  %167 = load i32, ptr %15, align 4
  %168 = call ptr (ptr, i32, ptr, i32, i32, i32, ptr, ...) @proto_tree_add_uint_format(ptr noundef %161, i32 noundef %162, ptr noundef %163, i32 noundef %164, i32 noundef 4, i32 noundef %165, ptr noundef @.str.492, i32 noundef %166, i32 noundef %167)
  store ptr %168, ptr %20, align 8
  %169 = load ptr, ptr %20, align 8
  call void @proto_item_set_generated(ptr noundef %169)
  %170 = load ptr, ptr %6, align 8
  %171 = load ptr, ptr %20, align 8
  %172 = call ptr @expert_add_info(ptr noundef %170, ptr noundef %171, ptr noundef @ei_dsmcc_crc_invalid)
  call void @llvm.lifetime.end.p0(i64 8, ptr %20) #4
  br label %173

173:                                              ; preds = %160, %151
  br label %181

174:                                              ; preds = %129
  %175 = load ptr, ptr %10, align 8
  %176 = load ptr, ptr %5, align 8
  %177 = load i32, ptr %11, align 4
  %178 = load i32, ptr @hf_dsmcc_checksum, align 4
  %179 = load ptr, ptr %6, align 8
  %180 = call ptr @proto_tree_add_checksum(ptr noundef %175, ptr noundef %176, i32 noundef %177, i32 noundef %178, i32 noundef -1, ptr noundef null, ptr noundef %179, i32 noundef 0, i32 noundef 0, i32 noundef 0)
  br label %181

181:                                              ; preds = %174, %173
  %182 = load ptr, ptr %5, align 8
  %183 = call i32 @tvb_reported_length(ptr noundef %182)
  call void @llvm.lifetime.end.p0(i64 4, ptr %19) #4
  call void @llvm.lifetime.end.p0(i64 2, ptr %18) #4
  call void @llvm.lifetime.end.p0(i64 8, ptr %17) #4
  call void @llvm.lifetime.end.p0(i64 8, ptr %16) #4
  call void @llvm.lifetime.end.p0(i64 4, ptr %15) #4
  call void @llvm.lifetime.end.p0(i64 4, ptr %14) #4
  call void @llvm.lifetime.end.p0(i64 2, ptr %13) #4
  call void @llvm.lifetime.end.p0(i64 1, ptr %12) #4
  call void @llvm.lifetime.end.p0(i64 4, ptr %11) #4
  call void @llvm.lifetime.end.p0(i64 8, ptr %10) #4
  call void @llvm.lifetime.end.p0(i64 8, ptr %9) #4
  ret i32 %183
}