; Function Attrs: null_pointer_is_valid sspstrong uwtable
define internal i32 @dissect_dsmcc_ts(ptr noundef %0, ptr noundef %1, ptr noundef %2, ptr readnone captures(none) %3) #0 {
  %5 = load i32, ptr @proto_dsmcc, align 4
  %6 = tail call ptr @proto_tree_add_item(ptr noundef %2, i32 noundef %5, ptr noundef %0, i32 noundef 0, i32 noundef -1, i32 noundef 0)
  %7 = load i32, ptr @ett_dsmcc, align 4
  %8 = tail call ptr @proto_item_add_subtree(ptr noundef %6, i32 noundef %7)
  %9 = getelementptr inbounds nuw i8, ptr %1, i64 8
  %10 = load ptr, ptr %9, align 8
  tail call void @col_set_str(ptr noundef %10, i32 noundef 35, ptr noundef nonnull @.str.488)
  %11 = tail call zeroext i8 @tvb_get_uint8(ptr noundef %0, i32 noundef 0)
  %12 = load i32, ptr @hf_dsmcc_table_id, align 4
  %13 = tail call ptr @proto_tree_add_item(ptr noundef %8, i32 noundef %12, ptr noundef %0, i32 noundef 0, i32 noundef 1, i32 noundef 0)
  %14 = tail call zeroext i16 @tvb_get_ntohs(ptr noundef %0, i32 noundef 1)
  %15 = load i32, ptr @hf_dsmcc_section_syntax_indicator, align 4
  %16 = tail call ptr @proto_tree_add_item(ptr noundef %8, i32 noundef %15, ptr noundef %0, i32 noundef 1, i32 noundef 2, i32 noundef 0)
  %17 = load i32, ptr @hf_dsmcc_private_indicator, align 4
  %18 = tail call ptr @proto_tree_add_item(ptr noundef %8, i32 noundef %17, ptr noundef %0, i32 noundef 1, i32 noundef 2, i32 noundef 0)
  %19 = load i32, ptr @hf_dsmcc_reserved, align 4
  %20 = tail call ptr @proto_tree_add_item(ptr noundef %8, i32 noundef %19, ptr noundef %0, i32 noundef 1, i32 noundef 2, i32 noundef 0)
  %21 = load i32, ptr @hf_dsmcc_section_length, align 4
  %22 = tail call ptr @proto_tree_add_item(ptr noundef %8, i32 noundef %21, ptr noundef %0, i32 noundef 1, i32 noundef 2, i32 noundef 0)
  %23 = tail call zeroext i16 @tvb_get_ntohs(ptr noundef %0, i32 noundef 1)
  %24 = and i16 %23, 4095
  %25 = load i32, ptr @hf_dsmcc_table_id_extension, align 4
  %26 = tail call ptr @proto_tree_add_item(ptr noundef %8, i32 noundef %25, ptr noundef %0, i32 noundef 3, i32 noundef 2, i32 noundef 0)
  %27 = load i32, ptr @hf_dsmcc_reserved2, align 4
  %28 = tail call ptr @proto_tree_add_item(ptr noundef %8, i32 noundef %27, ptr noundef %0, i32 noundef 5, i32 noundef 1, i32 noundef 0)
  %29 = load i32, ptr @hf_dsmcc_version_number, align 4
  %30 = tail call ptr @proto_tree_add_item(ptr noundef %8, i32 noundef %29, ptr noundef %0, i32 noundef 5, i32 noundef 1, i32 noundef 0)
  %31 = load i32, ptr @hf_dsmcc_current_next_indicator, align 4
  %32 = tail call ptr @proto_tree_add_item(ptr noundef %8, i32 noundef %31, ptr noundef %0, i32 noundef 5, i32 noundef 1, i32 noundef 0)
  %33 = load i32, ptr @hf_dsmcc_section_number, align 4
  %34 = tail call ptr @proto_tree_add_item(ptr noundef %8, i32 noundef %33, ptr noundef %0, i32 noundef 6, i32 noundef 1, i32 noundef 0)
  %35 = load i32, ptr @hf_dsmcc_last_section_number, align 4
  %36 = tail call ptr @proto_tree_add_item(ptr noundef %8, i32 noundef %35, ptr noundef %0, i32 noundef 7, i32 noundef 1, i32 noundef 0)
  %37 = zext nneg i16 %24 to i32
  %38 = add nsw i32 %37, -9
  %39 = tail call ptr @tvb_new_subset_length(ptr noundef %0, i32 noundef 8, i32 noundef %38)
  %.off = add i8 %11, -59
  %switch = icmp ult i8 %.off, 2
  br i1 %switch, label %40, label %41

40:                                               ; preds = %4
  tail call fastcc void @dissect_dsmcc_un(ptr noundef %39, ptr noundef %1, ptr noundef %8, ptr noundef %2)
  br label %41

41:                                               ; preds = %4, %40
  %42 = add nsw i32 %37, -1
  %.not = icmp sgt i16 %14, -1
  br i1 %.not, label %63, label %43

43:                                               ; preds = %41
  %44 = tail call i32 @tvb_get_ntohl(ptr noundef %0, i32 noundef %42)
  %45 = load i8, ptr @dsmcc_sect_check_crc, align 1, !range !6, !noundef !7
  %46 = trunc nuw i8 %45 to i1
  br i1 %46, label %47, label %.thread

47:                                               ; preds = %43
  %48 = tail call i32 @crc32_mpeg2_tvb_offset(ptr noundef %0, i32 noundef 0, i32 noundef %42)
  %49 = icmp eq i32 %48, %44
  br i1 %49, label %.thread, label %52

.thread:                                          ; preds = %43, %47
  %.08791 = phi ptr [ @.str.490, %47 ], [ @.str.489, %43 ]
  %50 = load i32, ptr @hf_dsmcc_crc, align 4
  %51 = tail call ptr (ptr, i32, ptr, i32, i32, i32, ptr, ...) @proto_tree_add_uint_format(ptr noundef %8, i32 noundef %50, ptr noundef %0, i32 noundef %42, i32 noundef 4, i32 noundef %44, ptr noundef nonnull @.str.491, i32 noundef %44, ptr noundef nonnull %.08791)
  br label %66

52:                                               ; preds = %47
  %53 = load i32, ptr @hf_dsmcc_crc, align 4
  %54 = tail call ptr (ptr, i32, ptr, i32, i32, i32, ptr, ...) @proto_tree_add_uint_format(ptr noundef %8, i32 noundef %53, ptr noundef %0, i32 noundef %42, i32 noundef 4, i32 noundef %44, ptr noundef nonnull @.str.492, i32 noundef %44, i32 noundef %48)
  %.not.i = icmp eq ptr %54, null
  br i1 %.not.i, label %proto_item_set_generated.exit, label %55

55:                                               ; preds = %52
  %56 = getelementptr inbounds nuw i8, ptr %54, i64 40
  %57 = load ptr, ptr %56, align 8
  %.not5.i = icmp eq ptr %57, null
  br i1 %.not5.i, label %proto_item_set_generated.exit, label %58

58:                                               ; preds = %55
  %59 = getelementptr inbounds nuw i8, ptr %57, i64 28
  %60 = load i32, ptr %59, align 4
  %61 = or i32 %60, 2
  store i32 %61, ptr %59, align 4
  br label %proto_item_set_generated.exit

proto_item_set_generated.exit:                    ; preds = %52, %55, %58
  %62 = tail call ptr @expert_add_info(ptr noundef %1, ptr noundef %54, ptr noundef nonnull @ei_dsmcc_crc_invalid)
  br label %66

63:                                               ; preds = %41
  %64 = load i32, ptr @hf_dsmcc_checksum, align 4
  %65 = tail call ptr @proto_tree_add_checksum(ptr noundef %8, ptr noundef %0, i32 noundef %42, i32 noundef %64, i32 noundef -1, ptr noundef null, ptr noundef %1, i32 noundef 0, i32 noundef 0, i32 noundef 0)
  br label %66

66:                                               ; preds = %.thread, %proto_item_set_generated.exit, %63
  %67 = tail call i32 @tvb_reported_length(ptr noundef %0)
  ret i32 %67
}